; Function Attrs: nofree nosync nounwind memory(readwrite, inaccessiblemem: none) uwtable
define void @Pas_ManPhase_rec(ptr noundef readonly captures(none) %0, ptr noundef readonly captures(none) %1, ptr noundef readonly captures(none) %2, ptr noundef %3, i32 noundef %4, ptr noundef readonly captures(none) %5, ptr noundef readonly captures(none) %6) local_unnamed_addr #0 {
  %8 = getelementptr inbounds nuw i8, ptr %0, i64 616
  %9 = load ptr, ptr %8, align 8
  %10 = getelementptr i8, ptr %0, i64 32
  %.val.i = load ptr, ptr %10, align 8
  %11 = ptrtoint ptr %3 to i64
  %12 = ptrtoint ptr %.val.i to i64
  %13 = sub i64 %11, %12
  %14 = sdiv exact i64 %13, 12
  %sext.i = shl i64 %14, 32
  %15 = ashr exact i64 %sext.i, 30
  %16 = getelementptr inbounds i8, ptr %9, i64 %15
  %17 = load i32, ptr %16, align 4
  %18 = getelementptr inbounds nuw i8, ptr %0, i64 176
  %19 = load i32, ptr %18, align 8
  %.not = icmp eq i32 %17, %19
  br i1 %.not, label %Vec_BitWriteEntry.exit61, label %20

20:                                               ; preds = %7
  store i32 %19, ptr %16, align 4
  %21 = icmp ne i32 %4, 0
  %cond = icmp eq i32 %4, 1
  br i1 %cond, label %22, label %Vec_BitWriteEntry.exit

22:                                               ; preds = %20
  %.val = load ptr, ptr %10, align 8
  %23 = ptrtoint ptr %.val to i64
  %24 = sub i64 %11, %23
  %25 = sdiv exact i64 %24, 12
  %26 = trunc i64 %25 to i32
  %27 = and i32 %26, 31
  %28 = shl nuw i32 1, %27
  %29 = getelementptr inbounds nuw i8, ptr %5, i64 8
  %30 = load ptr, ptr %29, align 8
  %31 = ashr i32 %26, 5
  %32 = sext i32 %31 to i64
  %33 = getelementptr inbounds i32, ptr %30, i64 %32
  %34 = load i32, ptr %33, align 4
  %35 = or i32 %28, %34
  store i32 %35, ptr %33, align 4
  br label %Vec_BitWriteEntry.exit

Vec_BitWriteEntry.exit:                           ; preds = %22, %20
  %.val58 = load i64, ptr %3, align 4
  %36 = and i64 %.val58, 2147483648
  %.not.i = icmp ne i64 %36, 0
  %37 = and i64 %.val58, 536870911
  %38 = icmp eq i64 %37, 536870911
  %narrow.i.not = or i1 %.not.i, %38
  br i1 %narrow.i.not, label %Vec_BitWriteEntry.exit61, label %39

39:                                               ; preds = %Vec_BitWriteEntry.exit
  %.val51 = load ptr, ptr %10, align 8
  %40 = ptrtoint ptr %.val51 to i64
  %41 = sub i64 %11, %40
  %42 = sdiv exact i64 %41, 12
  %43 = getelementptr i8, ptr %2, i64 8
  %.val56 = load ptr, ptr %43, align 8
  %sext = shl i64 %42, 32
  %44 = ashr exact i64 %sext, 30
  %45 = getelementptr inbounds i8, ptr %.val56, i64 %44
  %46 = load i32, ptr %45, align 4
  %47 = icmp eq i32 %46, -1
  br i1 %47, label %Vec_BitWriteEntry.exit61, label %48

48:                                               ; preds = %39
  %49 = mul nsw i32 %46, 6
  %50 = getelementptr i8, ptr %1, i64 8
  %.val55 = load ptr, ptr %50, align 8
  %51 = sext i32 %49 to i64
  %52 = getelementptr i32, ptr %.val55, i64 %51
  %53 = getelementptr i8, ptr %52, i64 12
  %54 = load i32, ptr %53, align 4
  %55 = getelementptr i8, ptr %52, i64 20
  %56 = load i32, ptr %55, align 4
  %57 = lshr i32 %56, 3
  %58 = and i32 %57, 1
  %59 = getelementptr i8, ptr %52, i64 8
  %60 = load i32, ptr %59, align 4
  %61 = icmp eq i32 %60, 0
  %or.cond = and i1 %21, %61
  br i1 %or.cond, label %62, label %.preheader

62:                                               ; preds = %48
  %63 = and i32 %46, 31
  %64 = shl nuw i32 1, %63
  %65 = getelementptr inbounds nuw i8, ptr %6, i64 8
  %66 = load ptr, ptr %65, align 8
  %67 = ashr i32 %46, 5
  %68 = sext i32 %67 to i64
  %69 = getelementptr inbounds i32, ptr %66, i64 %68
  %70 = load i32, ptr %69, align 4
  %71 = or i32 %70, %64
  store i32 %71, ptr %69, align 4
  br label %.preheader

.preheader:                                       ; preds = %62, %48
  br label %72

72:                                               ; preds = %.preheader, %85
  %indvars.iv = phi i64 [ %indvars.iv.next, %85 ], [ 0, %.preheader ]
  %.04664 = phi i32 [ %80, %85 ], [ %58, %.preheader ]
  %.val52 = load ptr, ptr %50, align 8
  %73 = getelementptr i32, ptr %.val52, i64 %indvars.iv
  %74 = getelementptr i32, ptr %73, i64 %51
  %75 = load i32, ptr %74, align 4
  %76 = trunc nuw nsw i64 %indvars.iv to i32
  %77 = lshr i32 %56, %76
  %78 = and i32 %77, 1
  %79 = xor i32 %78, %4
  %80 = xor i32 %79, %.04664
  %81 = icmp eq i32 %75, 0
  br i1 %81, label %85, label %82

82:                                               ; preds = %72
  %.val57 = load ptr, ptr %10, align 8
  %83 = sext i32 %75 to i64
  %84 = getelementptr inbounds %struct.Gia_Obj_t_, ptr %.val57, i64 %83
  tail call void @Pas_ManPhase_rec(ptr noundef %0, ptr noundef nonnull %1, ptr noundef %2, ptr noundef nonnull %84, i32 noundef %79, ptr noundef %5, ptr noundef %6)
  br label %85

85:                                               ; preds = %72, %82
  %indvars.iv.next = add nuw nsw i64 %indvars.iv, 1
  %exitcond.not = icmp eq i64 %indvars.iv.next, 3
  br i1 %exitcond.not, label %86, label %72, !llvm.loop !7

86:                                               ; preds = %85
  switch i32 %80, label %Vec_BitWriteEntry.exit61 [
    i32 1, label %87
    i32 0, label %97
  ]

87:                                               ; preds = %86
  %88 = and i32 %54, 31
  %89 = shl nuw i32 1, %88
  %90 = getelementptr inbounds nuw i8, ptr %5, i64 8
  %91 = load ptr, ptr %90, align 8
  %92 = ashr i32 %54, 5
  %93 = sext i32 %92 to i64
  %94 = getelementptr inbounds i32, ptr %91, i64 %93
  %95 = load i32, ptr %94, align 4
  %96 = or i32 %95, %89
  store i32 %96, ptr %94, align 4
  br label %Vec_BitWriteEntry.exit61

97:                                               ; preds = %86
  %98 = and i32 %54, 31
  %99 = shl nuw i32 1, %98
  %100 = xor i32 %99, -1
  %101 = getelementptr inbounds nuw i8, ptr %5, i64 8
  %102 = load ptr, ptr %101, align 8
  %103 = ashr i32 %54, 5
  %104 = sext i32 %103 to i64
  %105 = getelementptr inbounds i32, ptr %102, i64 %104
  %106 = load i32, ptr %105, align 4
  %107 = and i32 %106, %100
  store i32 %107, ptr %105, align 4
  br label %Vec_BitWriteEntry.exit61

Vec_BitWriteEntry.exit61:                         ; preds = %97, %87, %86, %39, %Vec_BitWriteEntry.exit, %7
  ret void
}